target datalayout = "e-m:e-p270:32:32-p271:32:32-p272:64:64-i64:64-i128:128-f80:128-n8:16:32:64-S128"
target triple = "x86_64-pc-linux-gnu"

%struct.expert_field = type { i32, i32 }
%struct.MessageHeader = type { [4 x i8], %struct.Version, i8, i8, i32, i32, i32, ptr }
%struct.Version = type { i8, i8 }

@hf_GIAS_DataModelMgr_get_logical_attribute_name_return = internal global i32 0, align 4
@hf_GIAS_DataModelMgr_get_logical_attribute_name_view_name = internal global i32 0, align 4
@hf_GIAS_DataModelMgr_get_logical_attribute_name_attribute_type = internal global i32 0, align 4
@hf_GIAS_DataModelMgr_get_logical_attribute_name_properties_loop = internal global i32 0, align 4
@hf_UCO_NameValue_aname = internal global i32 0, align 4
@ei_gias_unknown_giop_msg = internal global %struct.expert_field zeroinitializer, align 4
@ei_gias_unknown_exception = internal global %struct.expert_field zeroinitializer, align 4
@ett_giop_struct = internal global i32 0, align 4
@ett_giop_sequence = internal global i32 0, align 4
@boundary = internal global i32 12, align 4
@.str.826 = private unnamed_addr constant [21 x i8] c"Unknown exception %d\00", align 1
@.str.827 = private unnamed_addr constant [24 x i8] c"Unknown GIOP message %d\00", align 1
@.str.855 = private unnamed_addr constant [21 x i8] c"struct UCO_NameValue\00", align 1
@.str.928 = private unnamed_addr constant [65 x i8] c"sequence GIAS_DataModelMgr_get_logical_attribute_name_properties\00", align 1

; Function Attrs: null_pointer_is_valid sspstrong uwtable
define internal void @decode_UCO_NameValue_st(ptr noundef %0, ptr noundef %1, ptr noundef %2, ptr noundef %3, ptr noundef %4, ptr noundef %5, ptr noundef %6, i1 noundef zeroext %7) #0 {
  %9 = alloca ptr, align 8
  %10 = alloca ptr, align 8
  %11 = alloca ptr, align 8
  %12 = alloca ptr, align 8
  %13 = alloca ptr, align 8
  %14 = alloca ptr, align 8
  %15 = alloca ptr, align 8
  %16 = alloca i8, align 1
  store ptr %0, ptr %9, align 8
  store ptr %1, ptr %10, align 8
  store ptr %2, ptr %11, align 8
  store ptr %3, ptr %12, align 8
  store ptr %4, ptr %13, align 8
  store ptr %5, ptr %14, align 8
  store ptr %6, ptr %15, align 8
  %17 = zext i1 %7 to i8
  store i8 %17, ptr %16, align 1
  %18 = load ptr, ptr %11, align 8
  %19 = load ptr, ptr %9, align 8
  %20 = load ptr, ptr %13, align 8
  %21 = load i8, ptr %16, align 1, !range !6, !noundef !7
  %22 = trunc i8 %21 to i1
  %23 = load i32, ptr @boundary, align 4
  %24 = load i32, ptr @hf_UCO_NameValue_aname, align 4
  call void @giop_add_CDR_string(ptr noundef %18, ptr noundef %19, ptr noundef %20, i1 noundef zeroext %22, i32 noundef %23, i32 noundef %24)
  %25 = load ptr, ptr %9, align 8
  %26 = load ptr, ptr %10, align 8
  %27 = load ptr, ptr %11, align 8
  %28 = load ptr, ptr %12, align 8
  %29 = load ptr, ptr %13, align 8
  %30 = load i8, ptr %16, align 1, !range !6, !noundef !7
  %31 = trunc i8 %30 to i1
  %32 = load i32, ptr @boundary, align 4
  %33 = load ptr, ptr %14, align 8
  call void @get_CDR_any(ptr noundef %25, ptr noundef %26, ptr noundef %27, ptr noundef %28, ptr noundef %29, i1 noundef zeroext %31, i32 noundef %32, ptr noundef %33)
  ret void
}

; Function Attrs: null_pointer_is_valid sspstrong uwtable
define internal void @decode_GIAS_DataModelMgr_get_logical_attribute_name(ptr noundef %0, ptr noundef %1, ptr noundef %2, ptr noundef %3, ptr noundef %4, ptr noundef %5, ptr noundef %6, i1 noundef zeroext %7) #0 {
  %9 = alloca ptr, align 8
  %10 = alloca ptr, align 8
  %11 = alloca ptr, align 8
  %12 = alloca ptr, align 8
  %13 = alloca ptr, align 8
  %14 = alloca ptr, align 8
  %15 = alloca ptr, align 8
  %16 = alloca i8, align 1
  %17 = alloca i32, align 4
  %18 = alloca i32, align 4
  %19 = alloca i32, align 4
  %20 = alloca ptr, align 8
  %21 = alloca ptr, align 8
  store ptr %0, ptr %9, align 8
  store ptr %1, ptr %10, align 8
  store ptr %2, ptr %11, align 8
  store ptr %3, ptr %12, align 8
  store ptr %4, ptr %13, align 8
  store ptr %5, ptr %14, align 8
  store ptr %6, ptr %15, align 8
  %22 = zext i1 %7 to i8
  store i8 %22, ptr %16, align 1
  call void @llvm.lifetime.start.p0(i64 4, ptr %17) #6
  call void @llvm.lifetime.start.p0(i64 4, ptr %18) #6
  call void @llvm.lifetime.start.p0(i64 4, ptr %19) #6
  %23 = load ptr, ptr %14, align 8
  %24 = getelementptr inbounds nuw %struct.MessageHeader, ptr %23, i32 0, i32 3
  %25 = load i8, ptr %24, align 1
  %26 = zext i8 %25 to i32
  switch i32 %26, label %115 [
    i32 0, label %27
    i32 1, label %95
  ]

27:                                               ; preds = %8
  %28 = load ptr, ptr %11, align 8
  %29 = load ptr, ptr %9, align 8
  %30 = load ptr, ptr %13, align 8
  %31 = load i8, ptr %16, align 1, !range !6, !noundef !7
  %32 = trunc i8 %31 to i1
  %33 = load i32, ptr @boundary, align 4
  %34 = load i32, ptr @hf_GIAS_DataModelMgr_get_logical_attribute_name_view_name, align 4
  call void @giop_add_CDR_string(ptr noundef %28, ptr noundef %29, ptr noundef %30, i1 noundef zeroext %32, i32 noundef %33, i32 noundef %34)
  %35 = load ptr, ptr %9, align 8
  %36 = load ptr, ptr %13, align 8
  %37 = load i8, ptr %16, align 1, !range !6, !noundef !7
  %38 = trunc i8 %37 to i1
  %39 = load i32, ptr @boundary, align 4
  %40 = call i32 @get_CDR_enum(ptr noundef %35, ptr noundef %36, i1 noundef zeroext %38, i32 noundef %39)
  store i32 %40, ptr %17, align 4
  %41 = load ptr, ptr %11, align 8
  %42 = load i32, ptr @hf_GIAS_DataModelMgr_get_logical_attribute_name_attribute_type, align 4
  %43 = load ptr, ptr %9, align 8
  %44 = load ptr, ptr %13, align 8
  %45 = load i32, ptr %44, align 4
  %46 = sub i32 %45, 4
  %47 = load i32, ptr %17, align 4
  %48 = call ptr @proto_tree_add_uint(ptr noundef %41, i32 noundef %42, ptr noundef %43, i32 noundef %46, i32 noundef 4, i32 noundef %47)
  %49 = load ptr, ptr %9, align 8
  %50 = load ptr, ptr %13, align 8
  %51 = load i8, ptr %16, align 1, !range !6, !noundef !7
  %52 = trunc i8 %51 to i1
  %53 = load i32, ptr @boundary, align 4
  %54 = call i32 @get_CDR_ulong(ptr noundef %49, ptr noundef %50, i1 noundef zeroext %52, i32 noundef %53)
  store i32 %54, ptr %18, align 4
  %55 = load ptr, ptr %11, align 8
  %56 = load i32, ptr @hf_GIAS_DataModelMgr_get_logical_attribute_name_properties_loop, align 4
  %57 = load ptr, ptr %9, align 8
  %58 = load ptr, ptr %13, align 8
  %59 = load i32, ptr %58, align 4
  %60 = sub i32 %59, 4
  %61 = load i32, ptr %18, align 4
  %62 = call ptr @proto_tree_add_uint(ptr noundef %55, i32 noundef %56, ptr noundef %57, i32 noundef %60, i32 noundef 4, i32 noundef %61)
  call void @llvm.lifetime.start.p0(i64 8, ptr %20) #6
  %63 = load ptr, ptr %11, align 8
  store ptr %63, ptr %20, align 8
  %64 = load ptr, ptr %11, align 8
  %65 = load ptr, ptr %9, align 8
  %66 = load ptr, ptr %13, align 8
  %67 = load i32, ptr %66, align 4
  %68 = load i32, ptr @ett_giop_sequence, align 4
  %69 = call ptr @proto_tree_add_subtree(ptr noundef %64, ptr noundef %65, i32 noundef %67, i32 noundef -1, i32 noundef %68, ptr noundef null, ptr noundef @.str.928)
  store ptr %69, ptr %11, align 8
  store i32 0, ptr %19, align 4
  br label %70

70:                                               ; preds = %90, %27
  %71 = load i32, ptr %19, align 4
  %72 = load i32, ptr %18, align 4
  %73 = icmp ult i32 %71, %72
  br i1 %73, label %74, label %93

74:                                               ; preds = %70
  call void @llvm.lifetime.start.p0(i64 8, ptr %21) #6
  %75 = load ptr, ptr %11, align 8
  %76 = load ptr, ptr %9, align 8
  %77 = load ptr, ptr %13, align 8
  %78 = load i32, ptr %77, align 4
  %79 = load i32, ptr @ett_giop_struct, align 4
  %80 = call ptr @proto_tree_add_subtree(ptr noundef %75, ptr noundef %76, i32 noundef %78, i32 noundef -1, i32 noundef %79, ptr noundef null, ptr noundef @.str.855)
  store ptr %80, ptr %21, align 8
  %81 = load ptr, ptr %9, align 8
  %82 = load ptr, ptr %10, align 8
  %83 = load ptr, ptr %21, align 8
  %84 = load ptr, ptr %12, align 8
  %85 = load ptr, ptr %13, align 8
  %86 = load ptr, ptr %14, align 8
  %87 = load ptr, ptr %15, align 8
  %88 = load i8, ptr %16, align 1, !range !6, !noundef !7
  %89 = trunc i8 %88 to i1
  call void @decode_UCO_NameValue_st(ptr noundef %81, ptr noundef %82, ptr noundef %83, ptr noundef %84, ptr noundef %85, ptr noundef %86, ptr noundef %87, i1 noundef zeroext %89)
  call void @llvm.lifetime.end.p0(i64 8, ptr %21) #6
  br label %90

90:                                               ; preds = %74
  %91 = load i32, ptr %19, align 4
  %92 = add i32 %91, 1
  store i32 %92, ptr %19, align 4
  br label %70, !llvm.loop !54

93:                                               ; preds = %70
  %94 = load ptr, ptr %20, align 8
  store ptr %94, ptr %11, align 8
  call void @llvm.lifetime.end.p0(i64 8, ptr %20) #6
  br label %123

95:                                               ; preds = %8
  %96 = load ptr, ptr %14, align 8
  %97 = getelementptr inbounds nuw %struct.MessageHeader, ptr %96, i32 0, i32 6
  %98 = load i32, ptr %97, align 8
  switch i32 %98, label %107 [
    i32 0, label %99
    i32 1, label %114
  ]

99:                                               ; preds = %95
  %100 = load ptr, ptr %11, align 8
  %101 = load ptr, ptr %9, align 8
  %102 = load ptr, ptr %13, align 8
  %103 = load i8, ptr %16, align 1, !range !6, !noundef !7
  %104 = trunc i8 %103 to i1
  %105 = load i32, ptr @boundary, align 4
  %106 = load i32, ptr @hf_GIAS_DataModelMgr_get_logical_attribute_name_return, align 4
  call void @giop_add_CDR_string(ptr noundef %100, ptr noundef %101, ptr noundef %102, i1 noundef zeroext %104, i32 noundef %105, i32 noundef %106)
  br label %114

107:                                              ; preds = %95
  %108 = load ptr, ptr %10, align 8
  %109 = load ptr, ptr %12, align 8
  %110 = load ptr, ptr %14, align 8
  %111 = getelementptr inbounds nuw %struct.MessageHeader, ptr %110, i32 0, i32 6
  %112 = load i32, ptr %111, align 8
  %113 = call ptr (ptr, ptr, ptr, ptr, ...) @expert_add_info_format(ptr noundef %108, ptr noundef %109, ptr noundef @ei_gias_unknown_exception, ptr noundef @.str.826, i32 noundef %112)
  br label %114

114:                                              ; preds = %107, %95, %99
  br label %123

115:                                              ; preds = %8
  %116 = load ptr, ptr %10, align 8
  %117 = load ptr, ptr %12, align 8
  %118 = load ptr, ptr %14, align 8
  %119 = getelementptr inbounds nuw %struct.MessageHeader, ptr %118, i32 0, i32 3
  %120 = load i8, ptr %119, align 1
  %121 = zext i8 %120 to i32
  %122 = call ptr (ptr, ptr, ptr, ptr, ...) @expert_add_info_format(ptr noundef %116, ptr noundef %117, ptr noundef @ei_gias_unknown_giop_msg, ptr noundef @.str.827, i32 noundef %121)
  br label %123

123:                                              ; preds = %115, %114, %93
  call void @llvm.lifetime.end.p0(i64 4, ptr %19) #6
  call void @llvm.lifetime.end.p0(i64 4, ptr %18) #6
  call void @llvm.lifetime.end.p0(i64 4, ptr %17) #6
  ret void
}