; Function Attrs: null_pointer_is_valid sspstrong uwtable
define internal fastcc void @decode_GIAS_DataModelMgr_get_logical_attribute_name(ptr noundef %0, ptr noundef %1, ptr noundef %2, ptr noundef %3, ptr noundef %4, ptr noundef %5, i1 noundef zeroext %6) unnamed_addr #0 {
  %8 = getelementptr inbounds nuw i8, ptr %5, i64 7
  %9 = load i8, ptr %8, align 1
  switch i8 %9, label %37 [
    i8 0, label %10
    i8 1, label %30
  ]

10:                                               ; preds = %7
  %11 = load i32, ptr @hf_GIAS_DataModelMgr_get_logical_attribute_name_view_name, align 4
  tail call void @giop_add_CDR_string(ptr noundef %2, ptr noundef %0, ptr noundef %4, i1 noundef zeroext %6, i32 noundef 12, i32 noundef %11)
  %12 = tail call i32 @get_CDR_enum(ptr noundef %0, ptr noundef %4, i1 noundef zeroext %6, i32 noundef 12)
  %13 = load i32, ptr @hf_GIAS_DataModelMgr_get_logical_attribute_name_attribute_type, align 4
  %14 = load i32, ptr %4, align 4
  %15 = add i32 %14, -4
  %16 = tail call ptr @proto_tree_add_uint(ptr noundef %2, i32 noundef %13, ptr noundef %0, i32 noundef %15, i32 noundef 4, i32 noundef %12)
  %17 = tail call i32 @get_CDR_ulong(ptr noundef %0, ptr noundef %4, i1 noundef zeroext %6, i32 noundef 12)
  %18 = load i32, ptr @hf_GIAS_DataModelMgr_get_logical_attribute_name_properties_loop, align 4
  %19 = load i32, ptr %4, align 4
  %20 = add i32 %19, -4
  %21 = tail call ptr @proto_tree_add_uint(ptr noundef %2, i32 noundef %18, ptr noundef %0, i32 noundef %20, i32 noundef 4, i32 noundef %17)
  %22 = load i32, ptr %4, align 4
  %23 = load i32, ptr @ett_giop_sequence, align 4
  %24 = tail call ptr @proto_tree_add_subtree(ptr noundef %2, ptr noundef %0, i32 noundef %22, i32 noundef -1, i32 noundef %23, ptr noundef null, ptr noundef nonnull @.str.928)
  %.not = icmp eq i32 %17, 0
  br i1 %.not, label %.loopexit, label %.lr.ph

.lr.ph:                                           ; preds = %10, %.lr.ph
  %.01 = phi i32 [ %29, %.lr.ph ], [ 0, %10 ]
  %25 = load i32, ptr %4, align 4
  %26 = load i32, ptr @ett_giop_struct, align 4
  %27 = tail call ptr @proto_tree_add_subtree(ptr noundef %24, ptr noundef %0, i32 noundef %25, i32 noundef -1, i32 noundef %26, ptr noundef null, ptr noundef nonnull @.str.855)
  %28 = load i32, ptr @hf_UCO_NameValue_aname, align 4
  tail call void @giop_add_CDR_string(ptr noundef %27, ptr noundef %0, ptr noundef %4, i1 noundef zeroext %6, i32 noundef 12, i32 noundef %28)
  tail call void @get_CDR_any(ptr noundef %0, ptr noundef %1, ptr noundef %27, ptr noundef %3, ptr noundef %4, i1 noundef zeroext %6, i32 noundef 12, ptr noundef %5)
  %29 = add nuw i32 %.01, 1
  %exitcond.not = icmp eq i32 %29, %17
  br i1 %exitcond.not, label %.loopexit, label %.lr.ph, !llvm.loop !58

30:                                               ; preds = %7
  %31 = getelementptr inbounds nuw i8, ptr %5, i64 16
  %32 = load i32, ptr %31, align 8
  switch i32 %32, label %35 [
    i32 0, label %33
    i32 1, label %.loopexit
  ]

33:                                               ; preds = %30
  %34 = load i32, ptr @hf_GIAS_DataModelMgr_get_logical_attribute_name_return, align 4
  tail call void @giop_add_CDR_string(ptr noundef %2, ptr noundef %0, ptr noundef %4, i1 noundef zeroext %6, i32 noundef 12, i32 noundef %34)
  br label %.loopexit

35:                                               ; preds = %30
  %36 = tail call ptr (ptr, ptr, ptr, ptr, ...) @expert_add_info_format(ptr noundef %1, ptr noundef %3, ptr noundef nonnull @ei_gias_unknown_exception, ptr noundef nonnull @.str.826, i32 noundef %32)
  br label %.loopexit

37:                                               ; preds = %7
  %38 = zext i8 %9 to i32
  %39 = tail call ptr (ptr, ptr, ptr, ptr, ...) @expert_add_info_format(ptr noundef %1, ptr noundef %3, ptr noundef nonnull @ei_gias_unknown_giop_msg, ptr noundef nonnull @.str.827, i32 noundef %38)
  br label %.loopexit

.loopexit:                                        ; preds = %.lr.ph, %10, %30, %33, %35, %37
  ret void
}